target datalayout = "e-m:e-p270:32:32-p271:32:32-p272:64:64-i64:64-i128:128-f80:128-n8:16:32:64-S128"
target triple = "x86_64-pc-linux-gnu"

@.str.7 = private unnamed_addr constant [2 x i8] c" \00", align 1
@parse_ddd.pat_source = internal constant [107 x i8] c"([-+]?)((?<!\\d)\\d{2,14})(?:\\s*t?\\s*(\\d{2,6})?(?:[,.](\\d*))?)?(?:\\s*(z\\b|[-+]\\d{1,4}\\b|\\[[-+]?\\d[^\\]]*\\]))?\00", align 16
@parse_ddd.pat = internal global i64 4, align 8

; Function Attrs: nounwind sspstrong uwtable
define internal i64 @regcomp(ptr noundef %0, i64 noundef %1, i32 noundef %2) #0 {
  %4 = alloca ptr, align 8
  %5 = alloca i64, align 8
  %6 = alloca i32, align 4
  %7 = alloca i64, align 8
  store ptr %0, ptr %4, align 8, !tbaa !10
  store i64 %1, ptr %5, align 8, !tbaa !6
  store i32 %2, ptr %6, align 4, !tbaa !13
  call void @llvm.lifetime.start.p0(i64 8, ptr %7) #21
  %8 = load ptr, ptr %4, align 8, !tbaa !10
  %9 = load i64, ptr %5, align 8, !tbaa !6
  %10 = load i32, ptr %6, align 4, !tbaa !13
  %11 = call i64 @rb_reg_new(ptr noundef %8, i64 noundef %9, i32 noundef %10)
  store i64 %11, ptr %7, align 8, !tbaa !6
  %12 = load i64, ptr %7, align 8, !tbaa !6
  %13 = call i64 @rb_obj_freeze(i64 noundef %12)
  %14 = load i64, ptr %7, align 8, !tbaa !6
  call void @rb_gc_register_mark_object(i64 noundef %14)
  %15 = load i64, ptr %7, align 8, !tbaa !6
  call void @llvm.lifetime.end.p0(i64 8, ptr %7) #21
  ret i64 %15
}

; Function Attrs: inlinehint nounwind sspstrong willreturn memory(none) uwtable
define internal zeroext i1 @RB_NIL_P(i64 noundef %0) #4 {
  %2 = alloca i64, align 8
  store i64 %0, ptr %2, align 8, !tbaa !6
  %3 = load i64, ptr %2, align 8, !tbaa !6
  %4 = icmp eq i64 %3, 4
  ret i1 %4
}

; Function Attrs: nounwind sspstrong uwtable
define internal i32 @parse_ddd(i64 noundef %0, i64 noundef %1) #0 {
  %3 = alloca i64, align 8
  %4 = alloca i64, align 8
  store i64 %0, ptr %3, align 8, !tbaa !6
  store i64 %1, ptr %4, align 8, !tbaa !6
  br label %5

5:                                                ; preds = %2
  %6 = load i64, ptr @parse_ddd.pat, align 8, !tbaa !6
  %7 = call zeroext i1 @RB_NIL_P(i64 noundef %6) #23
  br i1 %7, label %8, label %10

8:                                                ; preds = %5
  %9 = call i64 @regcomp(ptr noundef @parse_ddd.pat_source, i64 noundef 106, i32 noundef 1)
  store i64 %9, ptr @parse_ddd.pat, align 8, !tbaa !6
  br label %10

10:                                               ; preds = %8, %5
  br label %11

11:                                               ; preds = %10
  br label %12

12:                                               ; preds = %11
  %13 = load i64, ptr %3, align 8, !tbaa !6
  %14 = call i64 @rb_str_new_static(ptr noundef @.str.7, i64 noundef 1)
  %15 = load i64, ptr @parse_ddd.pat, align 8, !tbaa !6
  %16 = load i64, ptr %4, align 8, !tbaa !6
  %17 = call i32 @subx(i64 noundef %13, i64 noundef %14, i64 noundef %15, i64 noundef %16, ptr noundef @parse_ddd_cb)
  br label %18

18:                                               ; preds = %12
  ret i32 %17
}